S'Supreme Industries '
p0
.S'Suprajit Engineering '
p0
.S'Sunteck Realty '
p0
.S'Sundram Fasteners '
p0
.S'Sundaram-Clayton '
p0
.S'Sun TV Network '
p0
.S'Strides Pharma Science '
p0
.S'Sterlite Technologies '
p0
.S'Steel Authority of India '
p0
.S'State Bank of Indi'
p0
.S'SpiceJet '
p0
.S'South Indian Bank '
p0
.S'Sonata Software '
p0
.S'Solar Industries India '
p0
.S'Shree Renuka Sugars '
p0
.S'Shree Cements '
p0
.S'Shoppers Stop '
p0
.S'Shilpa Medicare '
p0
.S'Sheela Foam '
p0
.S'Schaeffler India '
p0
.S'Sanofi India '
p0
.S'Sadbhav Engineering '
p0
.S'SKF India '
p0
.S'SJVN '
p0
.S'Reliance Power '
p0
.S'Reliance Infrastructure '
p0
.S'Reliance Industries '
p0
.S'Relaxo Footwears '
p0
.S'Redington (India) '
p0
.S'Rallis India '
p0
.S'Rajesh Exports '
p0
.S'Rail Vikas Nigam '
p0
.S'RBL Bank '
p0
.S'Quess Corp '
p0
.S'Punjab National Ban'
p0
.S'Prism Johnson '
p0
.S'Praj Industries '
p0
.S'Polycab India '
p0
.S'Piramal Enterprises '
p0
.S'Pidilite Industries '
p0
.S'Phoenix Mills '
p0
.S'Phillips Carbon Black '
p0
.S'Pfizer '
p0
.S'Petronet LNG '
p0
.S'Persistent Systems '
p0
.S'Parag Milk Foods '
p0
.S'Page Industries '
p0
.S'PVR '
p0
.S'PNC Infratech '
p0
.S'PC Jeweller '
p0
.S'Orient Refractories '
p0
.S'Orient Electric '
p0
.S'Orient Cement '
p0
.S'Omaxe '
p0
.S'Oberoi Realty '
p0
.S'Nilkamal '
p0
.S'Nestle India '
p0
.S'Nava Bharat Ventures '
p0
.S'Narayana Hrudayalaya '
p0
.S'NTPC '
p0
.S'NMDC '
p0
.S'NLC India '
p0
.S'NIIT Technologies '
p0
.S'NHPC '
p0
.S'NESCO '
p0
.S'NBCC (India) '
p0
.S'Natco Pharma '
p0
.S'MphasiS '
p0
.S'Mishra Dhatu Nigam '
p0
.S'PNB Housing Finance '
p0
.S'Motherson Sumi Systems '
p0
.S'Minda Industries '
p0
.S'Minda Corporation '
p0
.S'Mindtree '
p0
.S'Metropolis Healthcare '
p0
.S'Max Financial Services '
p0
.S'Maruti Suzuki India '
p0
.S'Mahindra Logistics '
p0
.S'Mahindra CIE Automotive '
p0
.S'Maharashtra Seamless '
p0
.S'Maharashtra Scooters '
p0
.S'Mahanagar Gas '
p0
.S'Magma Fincorp '
p0
.S'MRF '
p0
.S'MOIL '
p0
.